; Function Attrs: mustprogress nounwind uwtable
define internal fastcc noundef nonnull align 8 dereferenceable(32) ptr @"_ZNSt8functionIFvRN4llvm16MachineIRBuilderEEEaSIZNS0_14CombinerHelper18matchSelectIMinMaxERKNS0_14MachineOperandERS4_E3$_1EENSt9enable_ifIXsr9_CallableIT_EE5valueESA_E4typeEOSD_"(ptr noundef nonnull returned align 8 dereferenceable(32) %0, ptr nocapture noundef nonnull readonly align 4 dereferenceable(12) %1) unnamed_addr #0 align 2 {
  %.sroa.0.i.i = alloca { i64, i64 }, align 8
  %3 = alloca %"class.std::function.248", align 8
  %4 = getelementptr inbounds nuw i8, ptr %3, i64 16
  %5 = getelementptr inbounds nuw i8, ptr %3, i64 24
  %6 = getelementptr inbounds i8, ptr %3, i64 12
  store i32 0, ptr %6, align 4
  call void @llvm.memcpy.p0.p0.i64(ptr noundef nonnull align 8 dereferenceable(12) %3, ptr noundef nonnull readonly align 4 dereferenceable(12) %1, i64 12, i1 false)
  call void @llvm.lifetime.start.p0(i64 16, ptr nonnull %.sroa.0.i.i)
  call void @llvm.memcpy.p0.p0.i64(ptr noundef nonnull align 8 dereferenceable(16) %.sroa.0.i.i, ptr noundef nonnull align 8 dereferenceable(16) %3, i64 16, i1 false)
  call void @llvm.memcpy.p0.p0.i64(ptr noundef nonnull align 8 dereferenceable(16) %3, ptr noundef nonnull align 8 dereferenceable(16) %0, i64 16, i1 false)
  call void @llvm.memcpy.p0.p0.i64(ptr noundef nonnull align 8 dereferenceable(16) %0, ptr noundef nonnull align 8 dereferenceable(16) %.sroa.0.i.i, i64 16, i1 false)
  call void @llvm.lifetime.end.p0(i64 16, ptr nonnull %.sroa.0.i.i)
  %7 = getelementptr inbounds nuw i8, ptr %0, i64 16
  %8 = load ptr, ptr %7, align 8
  store ptr %8, ptr %4, align 8
  store ptr @"_ZNSt17_Function_handlerIFvRN4llvm16MachineIRBuilderEEZNS0_14CombinerHelper18matchSelectIMinMaxERKNS0_14MachineOperandERSt8functionIS3_EE3$_1E10_M_managerERSt9_Any_dataRKSD_St18_Manager_operation", ptr %7, align 8
  %9 = getelementptr inbounds nuw i8, ptr %0, i64 24
  %10 = load ptr, ptr %9, align 8
  store ptr %10, ptr %5, align 8
  store ptr @"_ZNSt17_Function_handlerIFvRN4llvm16MachineIRBuilderEEZNS0_14CombinerHelper18matchSelectIMinMaxERKNS0_14MachineOperandERSt8functionIS3_EE3$_1E9_M_invokeERKSt9_Any_dataS2_", ptr %9, align 8
  %.not.i.i = icmp eq ptr %8, null
  br i1 %.not.i.i, label %_ZNSt8functionIFvRN4llvm16MachineIRBuilderEEED2Ev.exit, label %11

11:                                               ; preds = %2
  %12 = call noundef zeroext i1 %8(ptr noundef nonnull align 8 dereferenceable(16) %3, ptr noundef nonnull align 8 dereferenceable(16) %3, i32 noundef 3) #27
  br label %_ZNSt8functionIFvRN4llvm16MachineIRBuilderEEED2Ev.exit

_ZNSt8functionIFvRN4llvm16MachineIRBuilderEEED2Ev.exit: ; preds = %2, %11
  ret ptr %0
}